target datalayout = "e-m:e-p270:32:32-p271:32:32-p272:64:64-i64:64-i128:128-f80:128-n8:16:32:64-S128"
target triple = "x86_64-pc-linux-gnu"

%struct._lv_table_t = type { %struct._lv_obj_t, i32, i32, ptr, ptr, ptr, i32, i32 }
%struct._lv_obj_t = type { ptr, ptr, ptr, ptr, ptr, %struct.lv_area_t, i32, i16, i16 }
%struct.lv_area_t = type { i32, i32, i32, i32 }
%struct._lv_table_cell_t = type { i32, ptr, [1 x i8] }

; Function Attrs: nounwind uwtable
define internal void @lv_table_destructor(ptr noundef %0, ptr noundef %1) #0 {
  %3 = alloca ptr, align 8
  %4 = alloca ptr, align 8
  %5 = alloca ptr, align 8
  %6 = alloca i32, align 4
  store ptr %0, ptr %3, align 8, !tbaa !3
  store ptr %1, ptr %4, align 8, !tbaa !8
  call void @llvm.lifetime.start.p0(i64 8, ptr %5) #6
  %7 = load ptr, ptr %4, align 8, !tbaa !8
  store ptr %7, ptr %5, align 8, !tbaa !10
  call void @llvm.lifetime.start.p0(i64 4, ptr %6) #6
  store i32 0, ptr %6, align 4, !tbaa !25
  br label %8

8:                                                ; preds = %71, %2
  %9 = load i32, ptr %6, align 4, !tbaa !25
  %10 = load ptr, ptr %5, align 8, !tbaa !10
  %11 = getelementptr inbounds nuw %struct._lv_table_t, ptr %10, i32 0, i32 1
  %12 = load i32, ptr %11, align 8, !tbaa !12
  %13 = load ptr, ptr %5, align 8, !tbaa !10
  %14 = getelementptr inbounds nuw %struct._lv_table_t, ptr %13, i32 0, i32 2
  %15 = load i32, ptr %14, align 4, !tbaa !22
  %16 = mul i32 %12, %15
  %17 = icmp ult i32 %9, %16
  br i1 %17, label %18, label %74

18:                                               ; preds = %8
  %19 = load ptr, ptr %5, align 8, !tbaa !10
  %20 = getelementptr inbounds nuw %struct._lv_table_t, ptr %19, i32 0, i32 3
  %21 = load ptr, ptr %20, align 8, !tbaa !26
  %22 = load i32, ptr %6, align 4, !tbaa !25
  %23 = zext i32 %22 to i64
  %24 = getelementptr inbounds nuw ptr, ptr %21, i64 %23
  %25 = load ptr, ptr %24, align 8, !tbaa !27
  %26 = icmp ne ptr %25, null
  br i1 %26, label %27, label %70

27:                                               ; preds = %18
  %28 = load ptr, ptr %5, align 8, !tbaa !10
  %29 = getelementptr inbounds nuw %struct._lv_table_t, ptr %28, i32 0, i32 3
  %30 = load ptr, ptr %29, align 8, !tbaa !26
  %31 = load i32, ptr %6, align 4, !tbaa !25
  %32 = zext i32 %31 to i64
  %33 = getelementptr inbounds nuw ptr, ptr %30, i64 %32
  %34 = load ptr, ptr %33, align 8, !tbaa !27
  %35 = getelementptr inbounds nuw %struct._lv_table_cell_t, ptr %34, i32 0, i32 1
  %36 = load ptr, ptr %35, align 8, !tbaa !31
  %37 = icmp ne ptr %36, null
  br i1 %37, label %38, label %56

38:                                               ; preds = %27
  %39 = load ptr, ptr %5, align 8, !tbaa !10
  %40 = getelementptr inbounds nuw %struct._lv_table_t, ptr %39, i32 0, i32 3
  %41 = load ptr, ptr %40, align 8, !tbaa !26
  %42 = load i32, ptr %6, align 4, !tbaa !25
  %43 = zext i32 %42 to i64
  %44 = getelementptr inbounds nuw ptr, ptr %41, i64 %43
  %45 = load ptr, ptr %44, align 8, !tbaa !27
  %46 = getelementptr inbounds nuw %struct._lv_table_cell_t, ptr %45, i32 0, i32 1
  %47 = load ptr, ptr %46, align 8, !tbaa !31
  call void @lv_free(ptr noundef %47)
  %48 = load ptr, ptr %5, align 8, !tbaa !10
  %49 = getelementptr inbounds nuw %struct._lv_table_t, ptr %48, i32 0, i32 3
  %50 = load ptr, ptr %49, align 8, !tbaa !26
  %51 = load i32, ptr %6, align 4, !tbaa !25
  %52 = zext i32 %51 to i64
  %53 = getelementptr inbounds nuw ptr, ptr %50, i64 %52
  %54 = load ptr, ptr %53, align 8, !tbaa !27
  %55 = getelementptr inbounds nuw %struct._lv_table_cell_t, ptr %54, i32 0, i32 1
  store ptr null, ptr %55, align 8, !tbaa !31
  br label %56

56:                                               ; preds = %38, %27
  %57 = load ptr, ptr %5, align 8, !tbaa !10
  %58 = getelementptr inbounds nuw %struct._lv_table_t, ptr %57, i32 0, i32 3
  %59 = load ptr, ptr %58, align 8, !tbaa !26
  %60 = load i32, ptr %6, align 4, !tbaa !25
  %61 = zext i32 %60 to i64
  %62 = getelementptr inbounds nuw ptr, ptr %59, i64 %61
  %63 = load ptr, ptr %62, align 8, !tbaa !27
  call void @lv_free(ptr noundef %63)
  %64 = load ptr, ptr %5, align 8, !tbaa !10
  %65 = getelementptr inbounds nuw %struct._lv_table_t, ptr %64, i32 0, i32 3
  %66 = load ptr, ptr %65, align 8, !tbaa !26
  %67 = load i32, ptr %6, align 4, !tbaa !25
  %68 = zext i32 %67 to i64
  %69 = getelementptr inbounds nuw ptr, ptr %66, i64 %68
  store ptr null, ptr %69, align 8, !tbaa !27
  br label %70

70:                                               ; preds = %56, %18
  br label %71

71:                                               ; preds = %70
  %72 = load i32, ptr %6, align 4, !tbaa !25
  %73 = add i32 %72, 1
  store i32 %73, ptr %6, align 4, !tbaa !25
  br label %8, !llvm.loop !33

74:                                               ; preds = %8
  %75 = load ptr, ptr %5, align 8, !tbaa !10
  %76 = getelementptr inbounds nuw %struct._lv_table_t, ptr %75, i32 0, i32 3
  %77 = load ptr, ptr %76, align 8, !tbaa !26
  %78 = icmp ne ptr %77, null
  br i1 %78, label %79, label %83

79:                                               ; preds = %74
  %80 = load ptr, ptr %5, align 8, !tbaa !10
  %81 = getelementptr inbounds nuw %struct._lv_table_t, ptr %80, i32 0, i32 3
  %82 = load ptr, ptr %81, align 8, !tbaa !26
  call void @lv_free(ptr noundef %82)
  br label %83

83:                                               ; preds = %79, %74
  %84 = load ptr, ptr %5, align 8, !tbaa !10
  %85 = getelementptr inbounds nuw %struct._lv_table_t, ptr %84, i32 0, i32 4
  %86 = load ptr, ptr %85, align 8, !tbaa !24
  %87 = icmp ne ptr %86, null
  br i1 %87, label %88, label %92

88:                                               ; preds = %83
  %89 = load ptr, ptr %5, align 8, !tbaa !10
  %90 = getelementptr inbounds nuw %struct._lv_table_t, ptr %89, i32 0, i32 4
  %91 = load ptr, ptr %90, align 8, !tbaa !24
  call void @lv_free(ptr noundef %91)
  br label %92

92:                                               ; preds = %88, %83
  %93 = load ptr, ptr %5, align 8, !tbaa !10
  %94 = getelementptr inbounds nuw %struct._lv_table_t, ptr %93, i32 0, i32 5
  %95 = load ptr, ptr %94, align 8, !tbaa !23
  %96 = icmp ne ptr %95, null
  br i1 %96, label %97, label %101

97:                                               ; preds = %92
  %98 = load ptr, ptr %5, align 8, !tbaa !10
  %99 = getelementptr inbounds nuw %struct._lv_table_t, ptr %98, i32 0, i32 5
  %100 = load ptr, ptr %99, align 8, !tbaa !23
  call void @lv_free(ptr noundef %100)
  br label %101

101:                                              ; preds = %97, %92
  call void @llvm.lifetime.end.p0(i64 4, ptr %6) #6
  call void @llvm.lifetime.end.p0(i64 8, ptr %5) #6
  ret void
}