; Function Attrs: nounwind uwtable
define internal void @lv_table_destructor(ptr readnone captures(none) %0, ptr noundef readonly captures(none) %1) #0 {
  %3 = getelementptr inbounds nuw i8, ptr %1, i64 64
  %4 = getelementptr inbounds nuw i8, ptr %1, i64 68
  %5 = load i32, ptr %3, align 8, !tbaa !3
  %6 = load i32, ptr %4, align 4, !tbaa !18
  %7 = mul i32 %6, %5
  %.not32 = icmp eq i32 %7, 0
  %.phi.trans.insert = getelementptr inbounds nuw i8, ptr %1, i64 72
  %.pre36 = load ptr, ptr %.phi.trans.insert, align 8, !tbaa !22
  br i1 %.not32, label %._crit_edge, label %.lr.ph

.lr.ph:                                           ; preds = %2, %25
  %8 = phi i32 [ %26, %25 ], [ %6, %2 ]
  %9 = phi i32 [ %27, %25 ], [ %5, %2 ]
  %10 = phi ptr [ %28, %25 ], [ %.pre36, %2 ]
  %indvars.iv = phi i64 [ %indvars.iv.next, %25 ], [ 0, %2 ]
  %11 = getelementptr inbounds nuw ptr, ptr %10, i64 %indvars.iv
  %12 = load ptr, ptr %11, align 8, !tbaa !23
  %.not29 = icmp eq ptr %12, null
  br i1 %.not29, label %25, label %13

13:                                               ; preds = %.lr.ph
  %14 = getelementptr inbounds nuw i8, ptr %12, i64 8
  %15 = load ptr, ptr %14, align 8, !tbaa !27
  %.not30 = icmp eq ptr %15, null
  br i1 %.not30, label %21, label %16

16:                                               ; preds = %13
  tail call void @lv_free(ptr noundef nonnull %15) #9
  %17 = load ptr, ptr %.phi.trans.insert, align 8, !tbaa !22
  %18 = getelementptr inbounds nuw ptr, ptr %17, i64 %indvars.iv
  %19 = load ptr, ptr %18, align 8, !tbaa !23
  %20 = getelementptr inbounds nuw i8, ptr %19, i64 8
  store ptr null, ptr %20, align 8, !tbaa !27
  br label %21

21:                                               ; preds = %16, %13
  %22 = phi ptr [ %19, %16 ], [ %12, %13 ]
  tail call void @lv_free(ptr noundef nonnull %22) #9
  %23 = load ptr, ptr %.phi.trans.insert, align 8, !tbaa !22
  %24 = getelementptr inbounds nuw ptr, ptr %23, i64 %indvars.iv
  store ptr null, ptr %24, align 8, !tbaa !23
  %.pre34 = load i32, ptr %3, align 8, !tbaa !3
  %.pre35 = load i32, ptr %4, align 4, !tbaa !18
  br label %25

25:                                               ; preds = %.lr.ph, %21
  %26 = phi i32 [ %8, %.lr.ph ], [ %.pre35, %21 ]
  %27 = phi i32 [ %9, %.lr.ph ], [ %.pre34, %21 ]
  %28 = phi ptr [ %10, %.lr.ph ], [ %23, %21 ]
  %indvars.iv.next = add nuw nsw i64 %indvars.iv, 1
  %29 = mul i32 %26, %27
  %30 = zext i32 %29 to i64
  %31 = icmp samesign ult i64 %indvars.iv.next, %30
  br i1 %31, label %.lr.ph, label %._crit_edge.thread, !llvm.loop !29

._crit_edge:                                      ; preds = %2
  %.not = icmp eq ptr %.pre36, null
  br i1 %.not, label %33, label %._crit_edge.thread

._crit_edge.thread:                               ; preds = %25, %._crit_edge
  %32 = phi ptr [ %.pre36, %._crit_edge ], [ %28, %25 ]
  tail call void @lv_free(ptr noundef nonnull %32) #9
  br label %33

33:                                               ; preds = %._crit_edge.thread, %._crit_edge
  %34 = getelementptr inbounds nuw i8, ptr %1, i64 80
  %35 = load ptr, ptr %34, align 8, !tbaa !20
  %.not27 = icmp eq ptr %35, null
  br i1 %.not27, label %37, label %36

36:                                               ; preds = %33
  tail call void @lv_free(ptr noundef nonnull %35) #9
  br label %37

37:                                               ; preds = %36, %33
  %38 = getelementptr inbounds nuw i8, ptr %1, i64 88
  %39 = load ptr, ptr %38, align 8, !tbaa !19
  %.not28 = icmp eq ptr %39, null
  br i1 %.not28, label %41, label %40

40:                                               ; preds = %37
  tail call void @lv_free(ptr noundef nonnull %39) #9
  br label %41

41:                                               ; preds = %40, %37
  ret void
}